; Function Attrs: mustprogress uwtable
define void @_ZNK5boost6locale9generator8generateERKNSt7__cxx1112basic_stringIcSt11char_traitsIcESaIcEEE(ptr dead_on_unwind noalias writable sret(%"class.std::locale") align 8 %0, ptr nocapture noundef nonnull readonly align 8 dereferenceable(8) %1, ptr noundef nonnull align 8 dereferenceable(32) %2) local_unnamed_addr #5 align 2 personality ptr @__gxx_personality_v0 {
  %4 = alloca %"class.std::locale", align 8
  call void @llvm.lifetime.start.p0(i64 8, ptr nonnull %4) #27
  %5 = tail call noundef nonnull align 8 dereferenceable(8) ptr @_ZNSt6locale7classicEv()
  call void @_ZNSt6localeC1ERKS_(ptr noundef nonnull align 8 dereferenceable(8) %4, ptr noundef nonnull align 8 dereferenceable(8) %5) #27
  invoke void @_ZNK5boost6locale9generator8generateERKSt6localeRKNSt7__cxx1112basic_stringIcSt11char_traitsIcESaIcEEE(ptr dead_on_unwind writable sret(%"class.std::locale") align 8 %0, ptr noundef nonnull align 8 dereferenceable(8) %1, ptr noundef nonnull align 8 dereferenceable(8) %4, ptr noundef nonnull align 8 dereferenceable(32) %2)
          to label %6 unwind label %7

6:                                                ; preds = %3
  call void @_ZNSt6localeD1Ev(ptr noundef nonnull align 8 dereferenceable(8) %4) #27
  call void @llvm.lifetime.end.p0(i64 8, ptr nonnull %4) #27
  ret void

7:                                                ; preds = %3
  %8 = landingpad { ptr, i32 }
          cleanup
  call void @_ZNSt6localeD1Ev(ptr noundef nonnull align 8 dereferenceable(8) %4) #27
  call void @llvm.lifetime.end.p0(i64 8, ptr nonnull %4) #27
  resume { ptr, i32 } %8
}